target datalayout = "e-m:e-p270:32:32-p271:32:32-p272:64:64-i64:64-i128:128-f80:128-n8:16:32:64-S128"
target triple = "x86_64-pc-linux-gnu"

%struct._generic_SUNNonlinearSolver = type { ptr, ptr, ptr }
%struct._generic_SUNNonlinearSolver_Ops = type { ptr, ptr, ptr, ptr, ptr, ptr, ptr, ptr, ptr, ptr, ptr, ptr, ptr }
%struct.ARKodeMRIStepMemRec = type { ptr, ptr, i32, i32, i32, i32, i32, ptr, ptr, i32, i32, i32, ptr, i32, i32, i32, i32, i32, ptr, ptr, ptr, ptr, ptr, ptr, ptr, i32, ptr, i32, ptr, double, double, double, double, i32, double, double, double, double, double, double, i32, i64, i32, i32, i32, ptr, ptr, ptr, ptr, ptr, ptr, ptr, ptr, ptr, double, double, double, i64, i64, i64, i64, i64, i64, i32, i32, i32, double, double, ptr, i32, ptr, ptr }

@__func__.mriStep_SetNonlinearSolver = private unnamed_addr constant [27 x i8] c"mriStep_SetNonlinearSolver\00", align 1
@.str = private unnamed_addr constant [127 x i8] c"generated/home/dtcxzyw/WorkSpace/Projects/compilers/llvm-opt-benchmark/bench/sundials/sundials/src/arkode/arkode_mristep_nls.c\00", align 1
@.str.1 = private unnamed_addr constant [31 x i8] c"The NLS input must be non-NULL\00", align 1
@.str.2 = private unnamed_addr constant [41 x i8] c"NLS does not support required operations\00", align 1
@.str.3 = private unnamed_addr constant [30 x i8] c"Invalid nonlinear solver type\00", align 1
@.str.4 = private unnamed_addr constant [41 x i8] c"Setting nonlinear system function failed\00", align 1
@.str.5 = private unnamed_addr constant [41 x i8] c"Setting convergence test function failed\00", align 1
@.str.6 = private unnamed_addr constant [54 x i8] c"Setting maximum number of nonlinear iterations failed\00", align 1
@.str.7 = private unnamed_addr constant [43 x i8] c"The implicit slow ODE RHS function is NULL\00", align 1

; Function Attrs: nounwind uwtable
define i32 @mriStep_SetNonlinearSolver(ptr noundef %0, ptr noundef %1) #0 {
  %3 = alloca i32, align 4
  %4 = alloca ptr, align 8
  %5 = alloca ptr, align 8
  %6 = alloca ptr, align 8
  %7 = alloca i32, align 4
  %8 = alloca i32, align 4
  store ptr %0, ptr %4, align 8, !tbaa !3
  store ptr %1, ptr %5, align 8, !tbaa !8
  call void @llvm.lifetime.start.p0(i64 8, ptr %6) #4
  call void @llvm.lifetime.start.p0(i64 4, ptr %7) #4
  %9 = load ptr, ptr %4, align 8, !tbaa !3
  %10 = call i32 @mriStep_AccessStepMem(ptr noundef %9, ptr noundef @__func__.mriStep_SetNonlinearSolver, ptr noundef %6)
  store i32 %10, ptr %7, align 4, !tbaa !10
  %11 = load i32, ptr %7, align 4, !tbaa !10
  %12 = icmp ne i32 %11, 0
  br i1 %12, label %13, label %15

13:                                               ; preds = %2
  %14 = load i32, ptr %7, align 4, !tbaa !10
  store i32 %14, ptr %3, align 4
  store i32 1, ptr %8, align 4
  br label %131

15:                                               ; preds = %2
  %16 = load ptr, ptr %5, align 8, !tbaa !8
  %17 = icmp eq ptr %16, null
  br i1 %17, label %18, label %19

18:                                               ; preds = %15
  call void (ptr, i32, i32, ptr, ptr, ptr, ...) @arkProcessError(ptr noundef null, i32 noundef -22, i32 noundef 48, ptr noundef @__func__.mriStep_SetNonlinearSolver, ptr noundef @.str, ptr noundef @.str.1)
  store i32 -22, ptr %3, align 4
  store i32 1, ptr %8, align 4
  br label %131

19:                                               ; preds = %15
  %20 = load ptr, ptr %5, align 8, !tbaa !8
  %21 = getelementptr inbounds nuw %struct._generic_SUNNonlinearSolver, ptr %20, i32 0, i32 1
  %22 = load ptr, ptr %21, align 8, !tbaa !12
  %23 = getelementptr inbounds nuw %struct._generic_SUNNonlinearSolver_Ops, ptr %22, i32 0, i32 0
  %24 = load ptr, ptr %23, align 8, !tbaa !16
  %25 = icmp eq ptr %24, null
  br i1 %25, label %40, label %26

26:                                               ; preds = %19
  %27 = load ptr, ptr %5, align 8, !tbaa !8
  %28 = getelementptr inbounds nuw %struct._generic_SUNNonlinearSolver, ptr %27, i32 0, i32 1
  %29 = load ptr, ptr %28, align 8, !tbaa !12
  %30 = getelementptr inbounds nuw %struct._generic_SUNNonlinearSolver_Ops, ptr %29, i32 0, i32 3
  %31 = load ptr, ptr %30, align 8, !tbaa !18
  %32 = icmp eq ptr %31, null
  br i1 %32, label %40, label %33

33:                                               ; preds = %26
  %34 = load ptr, ptr %5, align 8, !tbaa !8
  %35 = getelementptr inbounds nuw %struct._generic_SUNNonlinearSolver, ptr %34, i32 0, i32 1
  %36 = load ptr, ptr %35, align 8, !tbaa !12
  %37 = getelementptr inbounds nuw %struct._generic_SUNNonlinearSolver_Ops, ptr %36, i32 0, i32 5
  %38 = load ptr, ptr %37, align 8, !tbaa !19
  %39 = icmp eq ptr %38, null
  br i1 %39, label %40, label %42

40:                                               ; preds = %33, %26, %19
  %41 = load ptr, ptr %4, align 8, !tbaa !3
  call void (ptr, i32, i32, ptr, ptr, ptr, ...) @arkProcessError(ptr noundef %41, i32 noundef -22, i32 noundef 57, ptr noundef @__func__.mriStep_SetNonlinearSolver, ptr noundef @.str, ptr noundef @.str.2)
  store i32 -22, ptr %3, align 4
  store i32 1, ptr %8, align 4
  br label %131

42:                                               ; preds = %33
  %43 = load ptr, ptr %6, align 8, !tbaa !20
  %44 = getelementptr inbounds nuw %struct.ARKodeMRIStepMemRec, ptr %43, i32 0, i32 26
  %45 = load ptr, ptr %44, align 8, !tbaa !22
  %46 = icmp ne ptr %45, null
  br i1 %46, label %47, label %57

47:                                               ; preds = %42
  %48 = load ptr, ptr %6, align 8, !tbaa !20
  %49 = getelementptr inbounds nuw %struct.ARKodeMRIStepMemRec, ptr %48, i32 0, i32 27
  %50 = load i32, ptr %49, align 8, !tbaa !32
  %51 = icmp ne i32 %50, 0
  br i1 %51, label %52, label %57

52:                                               ; preds = %47
  %53 = load ptr, ptr %6, align 8, !tbaa !20
  %54 = getelementptr inbounds nuw %struct.ARKodeMRIStepMemRec, ptr %53, i32 0, i32 26
  %55 = load ptr, ptr %54, align 8, !tbaa !22
  %56 = call i32 @SUNNonlinSolFree(ptr noundef %55)
  store i32 %56, ptr %7, align 4, !tbaa !10
  br label %57

57:                                               ; preds = %52, %47, %42
  %58 = load ptr, ptr %5, align 8, !tbaa !8
  %59 = load ptr, ptr %6, align 8, !tbaa !20
  %60 = getelementptr inbounds nuw %struct.ARKodeMRIStepMemRec, ptr %59, i32 0, i32 26
  store ptr %58, ptr %60, align 8, !tbaa !22
  %61 = load ptr, ptr %6, align 8, !tbaa !20
  %62 = getelementptr inbounds nuw %struct.ARKodeMRIStepMemRec, ptr %61, i32 0, i32 27
  store i32 0, ptr %62, align 8, !tbaa !32
  %63 = load ptr, ptr %5, align 8, !tbaa !8
  %64 = call i32 @SUNNonlinSolGetType(ptr noundef %63)
  %65 = icmp eq i32 %64, 0
  br i1 %65, label %66, label %71

66:                                               ; preds = %57
  %67 = load ptr, ptr %6, align 8, !tbaa !20
  %68 = getelementptr inbounds nuw %struct.ARKodeMRIStepMemRec, ptr %67, i32 0, i32 26
  %69 = load ptr, ptr %68, align 8, !tbaa !22
  %70 = call i32 @SUNNonlinSolSetSysFn(ptr noundef %69, ptr noundef @mriStep_NlsResidual)
  store i32 %70, ptr %7, align 4, !tbaa !10
  br label %83

71:                                               ; preds = %57
  %72 = load ptr, ptr %5, align 8, !tbaa !8
  %73 = call i32 @SUNNonlinSolGetType(ptr noundef %72)
  %74 = icmp eq i32 %73, 1
  br i1 %74, label %75, label %80

75:                                               ; preds = %71
  %76 = load ptr, ptr %6, align 8, !tbaa !20
  %77 = getelementptr inbounds nuw %struct.ARKodeMRIStepMemRec, ptr %76, i32 0, i32 26
  %78 = load ptr, ptr %77, align 8, !tbaa !22
  %79 = call i32 @SUNNonlinSolSetSysFn(ptr noundef %78, ptr noundef @mriStep_NlsFPFunction)
  store i32 %79, ptr %7, align 4, !tbaa !10
  br label %82

80:                                               ; preds = %71
  %81 = load ptr, ptr %4, align 8, !tbaa !3
  call void (ptr, i32, i32, ptr, ptr, ptr, ...) @arkProcessError(ptr noundef %81, i32 noundef -22, i32 noundef 83, ptr noundef @__func__.mriStep_SetNonlinearSolver, ptr noundef @.str, ptr noundef @.str.3)
  store i32 -22, ptr %3, align 4
  store i32 1, ptr %8, align 4
  br label %131

82:                                               ; preds = %75
  br label %83

83:                                               ; preds = %82, %66
  %84 = load i32, ptr %7, align 4, !tbaa !10
  %85 = icmp ne i32 %84, 0
  br i1 %85, label %86, label %88

86:                                               ; preds = %83
  %87 = load ptr, ptr %4, align 8, !tbaa !3
  call void (ptr, i32, i32, ptr, ptr, ptr, ...) @arkProcessError(ptr noundef %87, i32 noundef -22, i32 noundef 89, ptr noundef @__func__.mriStep_SetNonlinearSolver, ptr noundef @.str, ptr noundef @.str.4)
  store i32 -22, ptr %3, align 4
  store i32 1, ptr %8, align 4
  br label %131

88:                                               ; preds = %83
  %89 = load ptr, ptr %6, align 8, !tbaa !20
  %90 = getelementptr inbounds nuw %struct.ARKodeMRIStepMemRec, ptr %89, i32 0, i32 26
  %91 = load ptr, ptr %90, align 8, !tbaa !22
  %92 = load ptr, ptr %4, align 8, !tbaa !3
  %93 = call i32 @SUNNonlinSolSetConvTestFn(ptr noundef %91, ptr noundef @mriStep_NlsConvTest, ptr noundef %92)
  store i32 %93, ptr %7, align 4, !tbaa !10
  %94 = load i32, ptr %7, align 4, !tbaa !10
  %95 = icmp ne i32 %94, 0
  br i1 %95, label %96, label %98

96:                                               ; preds = %88
  %97 = load ptr, ptr %4, align 8, !tbaa !3
  call void (ptr, i32, i32, ptr, ptr, ptr, ...) @arkProcessError(ptr noundef %97, i32 noundef -22, i32 noundef 99, ptr noundef @__func__.mriStep_SetNonlinearSolver, ptr noundef @.str, ptr noundef @.str.5)
  store i32 -22, ptr %3, align 4
  store i32 1, ptr %8, align 4
  br label %131

98:                                               ; preds = %88
  %99 = load ptr, ptr %6, align 8, !tbaa !20
  %100 = getelementptr inbounds nuw %struct.ARKodeMRIStepMemRec, ptr %99, i32 0, i32 26
  %101 = load ptr, ptr %100, align 8, !tbaa !22
  %102 = load ptr, ptr %6, align 8, !tbaa !20
  %103 = getelementptr inbounds nuw %struct.ARKodeMRIStepMemRec, ptr %102, i32 0, i32 42
  %104 = load i32, ptr %103, align 8, !tbaa !33
  %105 = call i32 @SUNNonlinSolSetMaxIters(ptr noundef %101, i32 noundef %104)
  store i32 %105, ptr %7, align 4, !tbaa !10
  %106 = load i32, ptr %7, align 4, !tbaa !10
  %107 = icmp ne i32 %106, 0
  br i1 %107, label %108, label %110

108:                                              ; preds = %98
  %109 = load ptr, ptr %4, align 8, !tbaa !3
  call void (ptr, i32, i32, ptr, ptr, ptr, ...) @arkProcessError(ptr noundef %109, i32 noundef -22, i32 noundef 108, ptr noundef @__func__.mriStep_SetNonlinearSolver, ptr noundef @.str, ptr noundef @.str.6)
  store i32 -22, ptr %3, align 4
  store i32 1, ptr %8, align 4
  br label %131

110:                                              ; preds = %98
  %111 = load ptr, ptr %6, align 8, !tbaa !20
  %112 = getelementptr inbounds nuw %struct.ARKodeMRIStepMemRec, ptr %111, i32 0, i32 28
  store ptr null, ptr %112, align 8, !tbaa !34
  %113 = load ptr, ptr %6, align 8, !tbaa !20
  %114 = getelementptr inbounds nuw %struct.ARKodeMRIStepMemRec, ptr %113, i32 0, i32 5
  %115 = load i32, ptr %114, align 4, !tbaa !35
  %116 = icmp ne i32 %115, 0
  br i1 %116, label %117, label %130

117:                                              ; preds = %110
  %118 = load ptr, ptr %6, align 8, !tbaa !20
  %119 = getelementptr inbounds nuw %struct.ARKodeMRIStepMemRec, ptr %118, i32 0, i32 1
  %120 = load ptr, ptr %119, align 8, !tbaa !36
  %121 = icmp ne ptr %120, null
  br i1 %121, label %124, label %122

122:                                              ; preds = %117
  %123 = load ptr, ptr %4, align 8, !tbaa !3
  call void (ptr, i32, i32, ptr, ptr, ptr, ...) @arkProcessError(ptr noundef %123, i32 noundef -22, i32 noundef 120, ptr noundef @__func__.mriStep_SetNonlinearSolver, ptr noundef @.str, ptr noundef @.str.7)
  store i32 -22, ptr %3, align 4
  store i32 1, ptr %8, align 4
  br label %131

124:                                              ; preds = %117
  %125 = load ptr, ptr %6, align 8, !tbaa !20
  %126 = getelementptr inbounds nuw %struct.ARKodeMRIStepMemRec, ptr %125, i32 0, i32 1
  %127 = load ptr, ptr %126, align 8, !tbaa !36
  %128 = load ptr, ptr %6, align 8, !tbaa !20
  %129 = getelementptr inbounds nuw %struct.ARKodeMRIStepMemRec, ptr %128, i32 0, i32 28
  store ptr %127, ptr %129, align 8, !tbaa !34
  br label %130

130:                                              ; preds = %124, %110
  store i32 0, ptr %3, align 4
  store i32 1, ptr %8, align 4
  br label %131

131:                                              ; preds = %130, %122, %108, %96, %86, %80, %40, %18, %13
  call void @llvm.lifetime.end.p0(i64 4, ptr %7) #4
  call void @llvm.lifetime.end.p0(i64 8, ptr %6) #4
  %132 = load i32, ptr %3, align 4
  ret i32 %132
}