; Function Attrs: nounwind uwtable
define i32 @mriStep_SetNonlinearSolver(ptr noundef %0, ptr noundef %1) local_unnamed_addr #0 {
  %3 = alloca ptr, align 8
  call void @llvm.lifetime.start.p0(i64 8, ptr nonnull %3) #5
  %4 = call i32 @mriStep_AccessStepMem(ptr noundef %0, ptr noundef nonnull @__func__.mriStep_SetNonlinearSolver, ptr noundef nonnull %3) #5
  %.not = icmp eq i32 %4, 0
  br i1 %.not, label %5, label %71

5:                                                ; preds = %2
  %6 = icmp eq ptr %1, null
  br i1 %6, label %7, label %8

7:                                                ; preds = %5
  call void (ptr, i32, i32, ptr, ptr, ptr, ...) @arkProcessError(ptr noundef null, i32 noundef -22, i32 noundef 48, ptr noundef nonnull @__func__.mriStep_SetNonlinearSolver, ptr noundef nonnull @.str, ptr noundef nonnull @.str.1) #5
  br label %71

8:                                                ; preds = %5
  %9 = getelementptr inbounds nuw i8, ptr %1, i64 8
  %10 = load ptr, ptr %9, align 8, !tbaa !3
  %11 = load ptr, ptr %10, align 8, !tbaa !10
  %12 = icmp eq ptr %11, null
  br i1 %12, label %21, label %13

13:                                               ; preds = %8
  %14 = getelementptr inbounds nuw i8, ptr %10, i64 24
  %15 = load ptr, ptr %14, align 8, !tbaa !12
  %16 = icmp eq ptr %15, null
  br i1 %16, label %21, label %17

17:                                               ; preds = %13
  %18 = getelementptr inbounds nuw i8, ptr %10, i64 40
  %19 = load ptr, ptr %18, align 8, !tbaa !13
  %20 = icmp eq ptr %19, null
  br i1 %20, label %21, label %22

21:                                               ; preds = %17, %13, %8
  call void (ptr, i32, i32, ptr, ptr, ptr, ...) @arkProcessError(ptr noundef %0, i32 noundef -22, i32 noundef 57, ptr noundef nonnull @__func__.mriStep_SetNonlinearSolver, ptr noundef nonnull @.str, ptr noundef nonnull @.str.2) #5
  br label %71

22:                                               ; preds = %17
  %23 = load ptr, ptr %3, align 8, !tbaa !14
  %24 = getelementptr inbounds nuw i8, ptr %23, i64 168
  %25 = load ptr, ptr %24, align 8, !tbaa !16
  %.not25 = icmp eq ptr %25, null
  br i1 %.not25, label %31, label %26

26:                                               ; preds = %22
  %27 = getelementptr inbounds nuw i8, ptr %23, i64 176
  %28 = load i32, ptr %27, align 8, !tbaa !28
  %.not26 = icmp eq i32 %28, 0
  br i1 %.not26, label %31, label %29

29:                                               ; preds = %26
  %30 = call i32 @SUNNonlinSolFree(ptr noundef nonnull %25) #5
  %.pre = load ptr, ptr %3, align 8, !tbaa !14
  br label %31

31:                                               ; preds = %29, %26, %22
  %32 = phi ptr [ %.pre, %29 ], [ %23, %26 ], [ %23, %22 ]
  %33 = getelementptr inbounds nuw i8, ptr %32, i64 168
  store ptr %1, ptr %33, align 8, !tbaa !16
  %34 = getelementptr inbounds nuw i8, ptr %32, i64 176
  store i32 0, ptr %34, align 8, !tbaa !28
  %35 = call i32 @SUNNonlinSolGetType(ptr noundef nonnull %1) #5
  %36 = icmp eq i32 %35, 0
  br i1 %36, label %41, label %37

37:                                               ; preds = %31
  %38 = call i32 @SUNNonlinSolGetType(ptr noundef nonnull %1) #5
  %39 = icmp eq i32 %38, 1
  br i1 %39, label %41, label %40

40:                                               ; preds = %37
  call void (ptr, i32, i32, ptr, ptr, ptr, ...) @arkProcessError(ptr noundef %0, i32 noundef -22, i32 noundef 83, ptr noundef nonnull @__func__.mriStep_SetNonlinearSolver, ptr noundef nonnull @.str, ptr noundef nonnull @.str.3) #5
  br label %71

41:                                               ; preds = %37, %31
  %mriStep_NlsFPFunction.sink = phi ptr [ @mriStep_NlsResidual, %31 ], [ @mriStep_NlsFPFunction, %37 ]
  %42 = load ptr, ptr %3, align 8, !tbaa !14
  %43 = getelementptr inbounds nuw i8, ptr %42, i64 168
  %44 = load ptr, ptr %43, align 8, !tbaa !16
  %45 = call i32 @SUNNonlinSolSetSysFn(ptr noundef %44, ptr noundef nonnull %mriStep_NlsFPFunction.sink) #5
  %.not27 = icmp eq i32 %45, 0
  br i1 %.not27, label %47, label %46

46:                                               ; preds = %41
  call void (ptr, i32, i32, ptr, ptr, ptr, ...) @arkProcessError(ptr noundef %0, i32 noundef -22, i32 noundef 89, ptr noundef nonnull @__func__.mriStep_SetNonlinearSolver, ptr noundef nonnull @.str, ptr noundef nonnull @.str.4) #5
  br label %71

47:                                               ; preds = %41
  %48 = load ptr, ptr %3, align 8, !tbaa !14
  %49 = getelementptr inbounds nuw i8, ptr %48, i64 168
  %50 = load ptr, ptr %49, align 8, !tbaa !16
  %51 = call i32 @SUNNonlinSolSetConvTestFn(ptr noundef %50, ptr noundef nonnull @mriStep_NlsConvTest, ptr noundef %0) #5
  %.not28 = icmp eq i32 %51, 0
  br i1 %.not28, label %53, label %52

52:                                               ; preds = %47
  call void (ptr, i32, i32, ptr, ptr, ptr, ...) @arkProcessError(ptr noundef %0, i32 noundef -22, i32 noundef 99, ptr noundef nonnull @__func__.mriStep_SetNonlinearSolver, ptr noundef nonnull @.str, ptr noundef nonnull @.str.5) #5
  br label %71

53:                                               ; preds = %47
  %54 = load ptr, ptr %3, align 8, !tbaa !14
  %55 = getelementptr inbounds nuw i8, ptr %54, i64 168
  %56 = load ptr, ptr %55, align 8, !tbaa !16
  %57 = getelementptr inbounds nuw i8, ptr %54, i64 296
  %58 = load i32, ptr %57, align 8, !tbaa !29
  %59 = call i32 @SUNNonlinSolSetMaxIters(ptr noundef %56, i32 noundef %58) #5
  %.not29 = icmp eq i32 %59, 0
  br i1 %.not29, label %61, label %60

60:                                               ; preds = %53
  call void (ptr, i32, i32, ptr, ptr, ptr, ...) @arkProcessError(ptr noundef %0, i32 noundef -22, i32 noundef 108, ptr noundef nonnull @__func__.mriStep_SetNonlinearSolver, ptr noundef nonnull @.str, ptr noundef nonnull @.str.6) #5
  br label %71

61:                                               ; preds = %53
  %62 = load ptr, ptr %3, align 8, !tbaa !14
  %63 = getelementptr inbounds nuw i8, ptr %62, i64 184
  store ptr null, ptr %63, align 8, !tbaa !30
  %64 = getelementptr inbounds nuw i8, ptr %62, i64 28
  %65 = load i32, ptr %64, align 4, !tbaa !31
  %.not30 = icmp eq i32 %65, 0
  br i1 %.not30, label %71, label %66

66:                                               ; preds = %61
  %67 = getelementptr inbounds nuw i8, ptr %62, i64 8
  %68 = load ptr, ptr %67, align 8, !tbaa !32
  %.not31 = icmp eq ptr %68, null
  br i1 %.not31, label %69, label %70

69:                                               ; preds = %66
  call void (ptr, i32, i32, ptr, ptr, ptr, ...) @arkProcessError(ptr noundef %0, i32 noundef -22, i32 noundef 120, ptr noundef nonnull @__func__.mriStep_SetNonlinearSolver, ptr noundef nonnull @.str, ptr noundef nonnull @.str.7) #5
  br label %71

70:                                               ; preds = %66
  store ptr %68, ptr %63, align 8, !tbaa !30
  br label %71

71:                                               ; preds = %61, %70, %2, %69, %60, %52, %46, %40, %21, %7
  %.020 = phi i32 [ -22, %7 ], [ -22, %21 ], [ -22, %46 ], [ -22, %52 ], [ -22, %60 ], [ -22, %69 ], [ -22, %40 ], [ %4, %2 ], [ 0, %70 ], [ 0, %61 ]
  call void @llvm.lifetime.end.p0(i64 8, ptr nonnull %3) #5
  ret i32 %.020
}